target datalayout = "e-m:e-p270:32:32-p271:32:32-p272:64:64-i64:64-i128:128-f80:128-n8:16:32:64-S128"
target triple = "x86_64-pc-linux-gnu"

%"class.icu_77::UnicodeString" = type { %"class.icu_77::Replaceable", %"union.icu_77::UnicodeString::StackBufferOrFields" }
%"class.icu_77::Replaceable" = type { %"class.icu_77::UObject" }
%"class.icu_77::UObject" = type { ptr }
%"union.icu_77::UnicodeString::StackBufferOrFields" = type { %struct.anon.0, [32 x i8] }
%struct.anon.0 = type { i16, i32, i32, ptr }
%"class.icu_77::RuleBasedNumberFormat" = type { %"class.icu_77::NumberFormat.base", ptr, ptr, i32, ptr, %"class.icu_77::Locale", ptr, ptr, ptr, ptr, i32, i8, ptr, ptr, %"class.icu_77::UnicodeString", i8, i8, i8, ptr }
%"class.icu_77::NumberFormat.base" = type <{ %"class.icu_77::Format", i8, [3 x i8], i32, i32, i32, i32, i8, i8, [4 x i16], [2 x i8], i32 }>
%"class.icu_77::Format" = type { %"class.icu_77::UObject", ptr, ptr }
%"class.icu_77::Locale" = type <{ %"class.icu_77::UObject", [12 x i8], [6 x i8], [4 x i8], [2 x i8], i32, [4 x i8], ptr, [157 x i8], [3 x i8], ptr, i8, [7 x i8] }>
%"class.std::type_info" = type { ptr, ptr }

; Function Attrs: mustprogress nounwind uwtable
define linkonce_odr noundef ptr @_ZNKSt9type_info4nameEv(ptr noundef nonnull align 8 dereferenceable(16) %0) #0 comdat align 2 {
  %2 = alloca ptr, align 8
  store ptr %0, ptr %2, align 8, !tbaa !140
  %3 = load ptr, ptr %2, align 8
  %4 = getelementptr inbounds nuw %"class.std::type_info", ptr %3, i32 0, i32 1
  %5 = load ptr, ptr %4, align 8, !tbaa !142
  %6 = getelementptr inbounds i8, ptr %5, i64 0
  %7 = load i8, ptr %6, align 1, !tbaa !39
  %8 = sext i8 %7 to i32
  %9 = icmp eq i32 %8, 42
  br i1 %9, label %10, label %14

10:                                               ; preds = %1
  %11 = getelementptr inbounds nuw %"class.std::type_info", ptr %3, i32 0, i32 1
  %12 = load ptr, ptr %11, align 8, !tbaa !142
  %13 = getelementptr inbounds i8, ptr %12, i64 1
  br label %17

14:                                               ; preds = %1
  %15 = getelementptr inbounds nuw %"class.std::type_info", ptr %3, i32 0, i32 1
  %16 = load ptr, ptr %15, align 8, !tbaa !142
  br label %17

17:                                               ; preds = %14, %10
  %18 = phi ptr [ %13, %10 ], [ %16, %14 ]
  ret ptr %18
}

; Function Attrs: inlinehint mustprogress nounwind uwtable
define linkonce_odr noundef zeroext i1 @_ZNKSt9type_infoeqERKS_(ptr noundef nonnull align 8 dereferenceable(16) %0, ptr noundef nonnull align 8 dereferenceable(16) %1) #4 comdat align 2 {
  %3 = alloca i1, align 1
  %4 = alloca ptr, align 8
  %5 = alloca ptr, align 8
  store ptr %0, ptr %4, align 8, !tbaa !140
  store ptr %1, ptr %5, align 8, !tbaa !140
  %6 = load ptr, ptr %4, align 8
  %7 = getelementptr inbounds nuw %"class.std::type_info", ptr %6, i32 0, i32 1
  %8 = load ptr, ptr %7, align 8, !tbaa !142
  %9 = load ptr, ptr %5, align 8, !tbaa !140
  %10 = getelementptr inbounds nuw %"class.std::type_info", ptr %9, i32 0, i32 1
  %11 = load ptr, ptr %10, align 8, !tbaa !142
  %12 = icmp eq ptr %8, %11
  br i1 %12, label %13, label %14

13:                                               ; preds = %2
  store i1 true, ptr %3, align 1
  br label %30

14:                                               ; preds = %2
  %15 = getelementptr inbounds nuw %"class.std::type_info", ptr %6, i32 0, i32 1
  %16 = load ptr, ptr %15, align 8, !tbaa !142
  %17 = getelementptr inbounds i8, ptr %16, i64 0
  %18 = load i8, ptr %17, align 1, !tbaa !39
  %19 = sext i8 %18 to i32
  %20 = icmp ne i32 %19, 42
  br i1 %20, label %21, label %28

21:                                               ; preds = %14
  %22 = getelementptr inbounds nuw %"class.std::type_info", ptr %6, i32 0, i32 1
  %23 = load ptr, ptr %22, align 8, !tbaa !142
  %24 = load ptr, ptr %5, align 8, !tbaa !140
  %25 = call noundef ptr @_ZNKSt9type_info4nameEv(ptr noundef nonnull align 8 dereferenceable(16) %24) #14
  %26 = call i32 @strcmp(ptr noundef %23, ptr noundef %25) #14
  %27 = icmp eq i32 %26, 0
  br label %28

28:                                               ; preds = %21, %14
  %29 = phi i1 [ false, %14 ], [ %27, %21 ]
  store i1 %29, ptr %3, align 1
  br label %30

30:                                               ; preds = %28, %13
  %31 = load i1, ptr %3, align 1
  ret i1 %31
}

; Function Attrs: mustprogress uwtable
define noundef zeroext i1 @_ZNK6icu_7721RuleBasedNumberFormateqERKNS_6FormatE(ptr noundef nonnull align 8 dereferenceable(456) %0, ptr noundef nonnull align 8 dereferenceable(24) %1) unnamed_addr #2 align 2 {
  %3 = alloca i1, align 1
  %4 = alloca ptr, align 8
  %5 = alloca ptr, align 8
  %6 = alloca ptr, align 8
  %7 = alloca ptr, align 8
  %8 = alloca ptr, align 8
  %9 = alloca i32, align 4
  store ptr %0, ptr %4, align 8, !tbaa !3
  store ptr %1, ptr %5, align 8, !tbaa !137
  %10 = load ptr, ptr %4, align 8
  %11 = load ptr, ptr %5, align 8, !tbaa !137
  %12 = icmp eq ptr %10, %11
  br i1 %12, label %13, label %14

13:                                               ; preds = %2
  store i1 true, ptr %3, align 1
  br label %120

14:                                               ; preds = %2
  %15 = icmp eq ptr %10, null
  br i1 %15, label %16, label %17

16:                                               ; preds = %14
  call void @__cxa_bad_typeid() #17
  unreachable

17:                                               ; preds = %14
  %18 = load ptr, ptr %10, align 8, !tbaa !10
  %19 = getelementptr inbounds ptr, ptr %18, i64 -1
  %20 = load ptr, ptr %19, align 8
  %21 = load ptr, ptr %5, align 8, !tbaa !137
  %22 = load ptr, ptr %21, align 8, !tbaa !10
  %23 = getelementptr inbounds ptr, ptr %22, i64 -1
  %24 = load ptr, ptr %23, align 8
  %25 = call noundef zeroext i1 @_ZNKSt9type_infoeqERKS_(ptr noundef nonnull align 8 dereferenceable(16) %20, ptr noundef nonnull align 8 dereferenceable(16) %24) #14
  br i1 %25, label %26, label %119

26:                                               ; preds = %17
  call void @llvm.lifetime.start.p0(i64 8, ptr %6) #14
  %27 = load ptr, ptr %5, align 8, !tbaa !137
  store ptr %27, ptr %6, align 8, !tbaa !3
  %28 = getelementptr inbounds nuw %"class.icu_77::RuleBasedNumberFormat", ptr %10, i32 0, i32 5
  %29 = load ptr, ptr %6, align 8, !tbaa !3
  %30 = getelementptr inbounds nuw %"class.icu_77::RuleBasedNumberFormat", ptr %29, i32 0, i32 5
  %31 = call noundef zeroext i1 @_ZNK6icu_776LocaleeqERKS0_(ptr noundef nonnull align 8 dereferenceable(217) %28, ptr noundef nonnull align 8 dereferenceable(217) %30)
  br i1 %31, label %32, label %115

32:                                               ; preds = %26
  %33 = getelementptr inbounds nuw %"class.icu_77::RuleBasedNumberFormat", ptr %10, i32 0, i32 11
  %34 = load i8, ptr %33, align 4, !tbaa !112
  %35 = sext i8 %34 to i32
  %36 = load ptr, ptr %6, align 8, !tbaa !3
  %37 = getelementptr inbounds nuw %"class.icu_77::RuleBasedNumberFormat", ptr %36, i32 0, i32 11
  %38 = load i8, ptr %37, align 4, !tbaa !112
  %39 = sext i8 %38 to i32
  %40 = icmp eq i32 %35, %39
  br i1 %40, label %41, label %115

41:                                               ; preds = %32
  %42 = getelementptr inbounds nuw %"class.icu_77::RuleBasedNumberFormat", ptr %10, i32 0, i32 13
  %43 = load ptr, ptr %42, align 8, !tbaa !114
  %44 = icmp eq ptr %43, null
  br i1 %44, label %45, label %50

45:                                               ; preds = %41
  %46 = load ptr, ptr %6, align 8, !tbaa !3
  %47 = getelementptr inbounds nuw %"class.icu_77::RuleBasedNumberFormat", ptr %46, i32 0, i32 13
  %48 = load ptr, ptr %47, align 8, !tbaa !114
  %49 = icmp eq ptr %48, null
  br i1 %49, label %66, label %115

50:                                               ; preds = %41
  %51 = load ptr, ptr %6, align 8, !tbaa !3
  %52 = getelementptr inbounds nuw %"class.icu_77::RuleBasedNumberFormat", ptr %51, i32 0, i32 13
  %53 = load ptr, ptr %52, align 8, !tbaa !114
  %54 = icmp eq ptr %53, null
  br i1 %54, label %55, label %56

55:                                               ; preds = %50
  br i1 false, label %66, label %115

56:                                               ; preds = %50
  %57 = getelementptr inbounds nuw %"class.icu_77::RuleBasedNumberFormat", ptr %10, i32 0, i32 13
  %58 = load ptr, ptr %57, align 8, !tbaa !114
  %59 = load ptr, ptr %6, align 8, !tbaa !3
  %60 = getelementptr inbounds nuw %"class.icu_77::RuleBasedNumberFormat", ptr %59, i32 0, i32 13
  %61 = load ptr, ptr %60, align 8, !tbaa !114
  %62 = load ptr, ptr %58, align 8, !tbaa !10
  %63 = getelementptr inbounds ptr, ptr %62, i64 2
  %64 = load ptr, ptr %63, align 8
  %65 = call noundef zeroext i1 %64(ptr noundef nonnull align 8 dereferenceable(12) %58, ptr noundef %61)
  br i1 %65, label %66, label %115

66:                                               ; preds = %56, %55, %45
  call void @llvm.lifetime.start.p0(i64 8, ptr %7) #14
  %67 = getelementptr inbounds nuw %"class.icu_77::RuleBasedNumberFormat", ptr %10, i32 0, i32 1
  %68 = load ptr, ptr %67, align 8, !tbaa !87
  store ptr %68, ptr %7, align 8, !tbaa !134
  call void @llvm.lifetime.start.p0(i64 8, ptr %8) #14
  %69 = load ptr, ptr %6, align 8, !tbaa !3
  %70 = getelementptr inbounds nuw %"class.icu_77::RuleBasedNumberFormat", ptr %69, i32 0, i32 1
  %71 = load ptr, ptr %70, align 8, !tbaa !87
  store ptr %71, ptr %8, align 8, !tbaa !134
  %72 = load ptr, ptr %7, align 8, !tbaa !134
  %73 = icmp eq ptr %72, null
  br i1 %73, label %74, label %77

74:                                               ; preds = %66
  %75 = load ptr, ptr %8, align 8, !tbaa !134
  %76 = icmp eq ptr %75, null
  store i1 %76, ptr %3, align 1
  store i32 1, ptr %9, align 4
  br label %114

77:                                               ; preds = %66
  %78 = load ptr, ptr %8, align 8, !tbaa !134
  %79 = icmp eq ptr %78, null
  br i1 %79, label %80, label %81

80:                                               ; preds = %77
  store i1 false, ptr %3, align 1
  store i32 1, ptr %9, align 4
  br label %114

81:                                               ; preds = %77
  br label %82

82:                                               ; preds = %81
  br label %83

83:                                               ; preds = %99, %82
  %84 = load ptr, ptr %7, align 8, !tbaa !134
  %85 = load ptr, ptr %84, align 8, !tbaa !121
  %86 = icmp ne ptr %85, null
  br i1 %86, label %87, label %97

87:                                               ; preds = %83
  %88 = load ptr, ptr %8, align 8, !tbaa !134
  %89 = load ptr, ptr %88, align 8, !tbaa !121
  %90 = icmp ne ptr %89, null
  br i1 %90, label %91, label %97

91:                                               ; preds = %87
  %92 = load ptr, ptr %7, align 8, !tbaa !134
  %93 = load ptr, ptr %92, align 8, !tbaa !121
  %94 = load ptr, ptr %8, align 8, !tbaa !134
  %95 = load ptr, ptr %94, align 8, !tbaa !121
  %96 = call noundef zeroext i1 @_ZNK6icu_779NFRuleSeteqERKS0_(ptr noundef nonnull align 8 dereferenceable(163) %93, ptr noundef nonnull align 8 dereferenceable(163) %95)
  br label %97

97:                                               ; preds = %91, %87, %83
  %98 = phi i1 [ false, %87 ], [ false, %83 ], [ %96, %91 ]
  br i1 %98, label %99, label %104

99:                                               ; preds = %97
  %100 = load ptr, ptr %7, align 8, !tbaa !134
  %101 = getelementptr inbounds nuw ptr, ptr %100, i32 1
  store ptr %101, ptr %7, align 8, !tbaa !134
  %102 = load ptr, ptr %8, align 8, !tbaa !134
  %103 = getelementptr inbounds nuw ptr, ptr %102, i32 1
  store ptr %103, ptr %8, align 8, !tbaa !134
  br label %83, !llvm.loop !139

104:                                              ; preds = %97
  %105 = load ptr, ptr %8, align 8, !tbaa !134
  %106 = load ptr, ptr %105, align 8, !tbaa !121
  %107 = icmp eq ptr %106, null
  br i1 %107, label %108, label %112

108:                                              ; preds = %104
  %109 = load ptr, ptr %7, align 8, !tbaa !134
  %110 = load ptr, ptr %109, align 8, !tbaa !121
  %111 = icmp eq ptr %110, null
  br label %112

112:                                              ; preds = %108, %104
  %113 = phi i1 [ false, %104 ], [ %111, %108 ]
  store i1 %113, ptr %3, align 1
  store i32 1, ptr %9, align 4
  br label %114

114:                                              ; preds = %112, %80, %74
  call void @llvm.lifetime.end.p0(i64 8, ptr %8) #14
  call void @llvm.lifetime.end.p0(i64 8, ptr %7) #14
  br label %116

115:                                              ; preds = %56, %55, %45, %32, %26
  store i32 0, ptr %9, align 4
  br label %116

116:                                              ; preds = %115, %114
  call void @llvm.lifetime.end.p0(i64 8, ptr %6) #14
  %117 = load i32, ptr %9, align 4
  switch i32 %117, label %122 [
    i32 0, label %118
    i32 1, label %120
  ]

118:                                              ; preds = %116
  br label %119

119:                                              ; preds = %118, %17
  store i1 false, ptr %3, align 1
  br label %120

120:                                              ; preds = %119, %116, %13
  %121 = load i1, ptr %3, align 1
  ret i1 %121

122:                                              ; preds = %116
  unreachable
}