; Function Attrs: mustprogress uwtable
define noundef zeroext i1 @_ZNK6icu_7721RuleBasedNumberFormateqERKNS_6FormatE(ptr noundef nonnull align 8 dereferenceable(456) %0, ptr noundef nonnull align 8 dereferenceable(24) %1) unnamed_addr #3 align 2 {
  %3 = icmp eq ptr %0, %1
  br i1 %3, label %_ZNKSt9type_infoeqERKS_.exit.thread35, label %4

4:                                                ; preds = %2
  %5 = load ptr, ptr %0, align 8, !tbaa !3
  %6 = getelementptr inbounds i8, ptr %5, i64 -8
  %7 = load ptr, ptr %6, align 8
  %8 = load ptr, ptr %1, align 8, !tbaa !3
  %9 = getelementptr inbounds i8, ptr %8, i64 -8
  %10 = load ptr, ptr %9, align 8
  %11 = getelementptr inbounds nuw i8, ptr %7, i64 8
  %12 = load ptr, ptr %11, align 8, !tbaa !114
  %13 = getelementptr inbounds nuw i8, ptr %10, i64 8
  %14 = load ptr, ptr %13, align 8, !tbaa !114
  %15 = icmp eq ptr %12, %14
  br i1 %15, label %_ZNKSt9type_infoeqERKS_.exit.thread, label %16

16:                                               ; preds = %4
  %17 = load i8, ptr %12, align 1, !tbaa !55
  %.not.i = icmp eq i8 %17, 42
  br i1 %.not.i, label %_ZNKSt9type_infoeqERKS_.exit.thread35, label %_ZNKSt9type_infoeqERKS_.exit

_ZNKSt9type_infoeqERKS_.exit:                     ; preds = %16
  %18 = load i8, ptr %14, align 1, !tbaa !55
  %19 = icmp eq i8 %18, 42
  %.idx.i.i = zext i1 %19 to i64
  %20 = getelementptr inbounds nuw i8, ptr %14, i64 %.idx.i.i
  %21 = tail call i32 @strcmp(ptr noundef nonnull dereferenceable(1) %12, ptr noundef nonnull dereferenceable(1) %20) #21
  %22 = icmp eq i32 %21, 0
  br i1 %22, label %_ZNKSt9type_infoeqERKS_.exit.thread, label %_ZNKSt9type_infoeqERKS_.exit.thread35

_ZNKSt9type_infoeqERKS_.exit.thread:              ; preds = %4, %_ZNKSt9type_infoeqERKS_.exit
  %23 = getelementptr inbounds nuw i8, ptr %0, i64 96
  %24 = getelementptr inbounds nuw i8, ptr %1, i64 96
  %25 = tail call noundef zeroext i1 @_ZNK6icu_776LocaleeqERKS0_(ptr noundef nonnull align 8 dereferenceable(217) %23, ptr noundef nonnull align 8 dereferenceable(217) %24)
  br i1 %25, label %26, label %_ZNKSt9type_infoeqERKS_.exit.thread35

26:                                               ; preds = %_ZNKSt9type_infoeqERKS_.exit.thread
  %27 = getelementptr inbounds nuw i8, ptr %0, i64 356
  %28 = load i8, ptr %27, align 4, !tbaa !85
  %29 = getelementptr inbounds nuw i8, ptr %1, i64 356
  %30 = load i8, ptr %29, align 4, !tbaa !85
  %31 = icmp eq i8 %28, %30
  br i1 %31, label %32, label %_ZNKSt9type_infoeqERKS_.exit.thread35

32:                                               ; preds = %26
  %33 = getelementptr inbounds nuw i8, ptr %0, i64 368
  %34 = load ptr, ptr %33, align 8, !tbaa !91
  %35 = icmp eq ptr %34, null
  %36 = getelementptr inbounds nuw i8, ptr %1, i64 368
  %37 = load ptr, ptr %36, align 8, !tbaa !91
  %38 = icmp eq ptr %37, null
  br i1 %35, label %39, label %40

39:                                               ; preds = %32
  br i1 %38, label %46, label %_ZNKSt9type_infoeqERKS_.exit.thread35

40:                                               ; preds = %32
  br i1 %38, label %_ZNKSt9type_infoeqERKS_.exit.thread35, label %41

41:                                               ; preds = %40
  %42 = load ptr, ptr %34, align 8, !tbaa !3
  %43 = getelementptr inbounds nuw i8, ptr %42, i64 16
  %44 = load ptr, ptr %43, align 8
  %45 = tail call noundef zeroext i1 %44(ptr noundef nonnull align 8 dereferenceable(12) %34, ptr noundef nonnull %37)
  br i1 %45, label %46, label %_ZNKSt9type_infoeqERKS_.exit.thread35

46:                                               ; preds = %41, %39
  %47 = getelementptr inbounds nuw i8, ptr %0, i64 64
  %48 = load ptr, ptr %47, align 8, !tbaa !95
  %49 = getelementptr inbounds nuw i8, ptr %1, i64 64
  %50 = load ptr, ptr %49, align 8, !tbaa !95
  %51 = icmp eq ptr %48, null
  %52 = icmp eq ptr %50, null
  %brmerge = select i1 %51, i1 true, i1 %52
  %.mux = select i1 %51, i1 %52, i1 false
  br i1 %brmerge, label %_ZNKSt9type_infoeqERKS_.exit.thread35, label %.preheader

.preheader:                                       ; preds = %46
  %53 = load ptr, ptr %48, align 8, !tbaa !96
  %.not43 = icmp eq ptr %53, null
  br i1 %.not43, label %.critedge, label %.lr.ph

.lr.ph:                                           ; preds = %.preheader, %58
  %54 = phi ptr [ %61, %58 ], [ %53, %.preheader ]
  %.02245 = phi ptr [ %60, %58 ], [ %50, %.preheader ]
  %.02344 = phi ptr [ %59, %58 ], [ %48, %.preheader ]
  %55 = load ptr, ptr %.02245, align 8, !tbaa !96
  %.not33 = icmp eq ptr %55, null
  br i1 %.not33, label %_ZNKSt9type_infoeqERKS_.exit.thread35, label %56

56:                                               ; preds = %.lr.ph
  %57 = tail call noundef zeroext i1 @_ZNK6icu_779NFRuleSeteqERKS0_(ptr noundef nonnull align 8 dereferenceable(163) %54, ptr noundef nonnull align 8 dereferenceable(163) %55)
  br i1 %57, label %58, label %.critedge

58:                                               ; preds = %56
  %59 = getelementptr inbounds nuw i8, ptr %.02344, i64 8
  %60 = getelementptr inbounds nuw i8, ptr %.02245, i64 8
  %61 = load ptr, ptr %59, align 8, !tbaa !96
  %.not = icmp eq ptr %61, null
  br i1 %.not, label %.critedge, label %.lr.ph, !llvm.loop !116

.critedge:                                        ; preds = %56, %58, %.preheader
  %.023.lcssa = phi ptr [ %48, %.preheader ], [ %59, %58 ], [ %.02344, %56 ]
  %.022.lcssa = phi ptr [ %50, %.preheader ], [ %60, %58 ], [ %.02245, %56 ]
  %.pr = load ptr, ptr %.022.lcssa, align 8, !tbaa !96
  %62 = icmp eq ptr %.pr, null
  br i1 %62, label %.critedge..critedge.thread_crit_edge, label %_ZNKSt9type_infoeqERKS_.exit.thread35

.critedge..critedge.thread_crit_edge:             ; preds = %.critedge
  %.pre = load ptr, ptr %.023.lcssa, align 8, !tbaa !96
  %63 = icmp eq ptr %.pre, null
  br label %_ZNKSt9type_infoeqERKS_.exit.thread35

_ZNKSt9type_infoeqERKS_.exit.thread35:            ; preds = %.lr.ph, %46, %.critedge..critedge.thread_crit_edge, %_ZNKSt9type_infoeqERKS_.exit.thread, %26, %39, %41, %40, %16, %_ZNKSt9type_infoeqERKS_.exit, %.critedge, %2
  %.024 = phi i1 [ true, %2 ], [ false, %.critedge ], [ false, %_ZNKSt9type_infoeqERKS_.exit ], [ false, %16 ], [ false, %40 ], [ false, %41 ], [ false, %39 ], [ false, %26 ], [ false, %_ZNKSt9type_infoeqERKS_.exit.thread ], [ %63, %.critedge..critedge.thread_crit_edge ], [ %.mux, %46 ], [ false, %.lr.ph ]
  ret i1 %.024
}